target datalayout = "e-m:e-p270:32:32-p271:32:32-p272:64:64-i64:64-i128:128-f80:128-n8:16:32:64-S128"
target triple = "x86_64-pc-linux-gnu"

%class.tbv_manager = type { %class.fixed_bit_vector_manager, %class.ptr_vector }
%class.fixed_bit_vector_manager = type <{ %class.small_object_allocator, i32, i32, i32, i32, %class.fixed_bit_vector, [4 x i8] }>
%class.small_object_allocator = type { [32 x ptr], [32 x ptr], i64 }
%class.fixed_bit_vector = type { [1 x i32] }
%class.ptr_vector = type { %class.vector }
%class.vector = type { ptr }

; Function Attrs: mustprogress nounwind uwtable
define linkonce_odr hidden noundef i32 @_ZN16fixed_bit_vector12get_pos_maskEj(i32 noundef %0) #4 comdat align 2 {
  %2 = alloca i32, align 4
  store i32 %0, ptr %2, align 4, !tbaa !20
  %3 = load i32, ptr %2, align 4, !tbaa !20
  %4 = urem i32 %3, 32
  %5 = shl i32 1, %4
  ret i32 %5
}

; Function Attrs: mustprogress nounwind uwtable
define linkonce_odr hidden noundef nonnull align 4 dereferenceable(4) ptr @_ZN16fixed_bit_vector12get_bit_wordEj(ptr noundef nonnull align 4 dereferenceable(4) %0, i32 noundef %1) #4 comdat align 2 {
  %3 = alloca ptr, align 8
  %4 = alloca i32, align 4
  store ptr %0, ptr %3, align 8, !tbaa !16
  store i32 %1, ptr %4, align 4, !tbaa !20
  %5 = load ptr, ptr %3, align 8
  %6 = getelementptr inbounds nuw %class.fixed_bit_vector, ptr %5, i32 0, i32 0
  %7 = load i32, ptr %4, align 4, !tbaa !20
  %8 = udiv i32 %7, 32
  %9 = zext i32 %8 to i64
  %10 = getelementptr inbounds nuw [1 x i32], ptr %6, i64 0, i64 %9
  ret ptr %10
}

; Function Attrs: mustprogress uwtable
define linkonce_odr hidden void @_ZN16fixed_bit_vector3setEjb(ptr noundef nonnull align 4 dereferenceable(4) %0, i32 noundef %1, i1 noundef zeroext %2) #6 comdat align 2 {
  %4 = alloca ptr, align 8
  %5 = alloca i32, align 4
  %6 = alloca i8, align 1
  %7 = alloca i32, align 4
  store ptr %0, ptr %4, align 8, !tbaa !16
  store i32 %1, ptr %5, align 4, !tbaa !20
  %8 = zext i1 %2 to i8
  store i8 %8, ptr %6, align 1, !tbaa !3
  %9 = load ptr, ptr %4, align 8
  call void @llvm.lifetime.start.p0(i64 4, ptr %7) #3
  %10 = load i8, ptr %6, align 1, !tbaa !3, !range !39, !noundef !40
  %11 = trunc i8 %10 to i1
  %12 = zext i1 %11 to i32
  store i32 %12, ptr %7, align 4, !tbaa !20
  %13 = load i32, ptr %7, align 4, !tbaa !20
  %14 = sub nsw i32 0, %13
  %15 = load i32, ptr %5, align 4, !tbaa !20
  %16 = call noundef nonnull align 4 dereferenceable(4) ptr @_ZN16fixed_bit_vector12get_bit_wordEj(ptr noundef nonnull align 4 dereferenceable(4) %9, i32 noundef %15)
  %17 = load i32, ptr %16, align 4, !tbaa !20
  %18 = xor i32 %14, %17
  %19 = load i32, ptr %5, align 4, !tbaa !20
  %20 = call noundef i32 @_ZN16fixed_bit_vector12get_pos_maskEj(i32 noundef %19)
  %21 = and i32 %18, %20
  %22 = load i32, ptr %5, align 4, !tbaa !20
  %23 = call noundef nonnull align 4 dereferenceable(4) ptr @_ZN16fixed_bit_vector12get_bit_wordEj(ptr noundef nonnull align 4 dereferenceable(4) %9, i32 noundef %22)
  %24 = load i32, ptr %23, align 4, !tbaa !20
  %25 = xor i32 %24, %21
  store i32 %25, ptr %23, align 4, !tbaa !20
  call void @llvm.lifetime.end.p0(i64 4, ptr %7) #3
  ret void
}

; Function Attrs: mustprogress uwtable
define linkonce_odr hidden noundef nonnull align 4 dereferenceable(4) ptr @_ZNK24fixed_bit_vector_manager5resetER16fixed_bit_vector(ptr noundef nonnull align 8 dereferenceable(540) %0, ptr noundef nonnull align 4 dereferenceable(4) %1) #6 comdat align 2 {
  %3 = alloca ptr, align 8
  %4 = alloca ptr, align 8
  store ptr %0, ptr %3, align 8, !tbaa !12
  store ptr %1, ptr %4, align 8, !tbaa !16
  %5 = load ptr, ptr %3, align 8
  %6 = load ptr, ptr %4, align 8, !tbaa !16
  %7 = call noundef nonnull align 4 dereferenceable(4) ptr @_ZNK24fixed_bit_vector_manager5fill0ER16fixed_bit_vector(ptr noundef nonnull align 8 dereferenceable(540) %5, ptr noundef nonnull align 4 dereferenceable(4) %6)
  ret ptr %7
}

; Function Attrs: mustprogress uwtable
define linkonce_odr hidden void @_ZN24fixed_bit_vector_manager3setER16fixed_bit_vectorjb(ptr noundef nonnull align 8 dereferenceable(540) %0, ptr noundef nonnull align 4 dereferenceable(4) %1, i32 noundef %2, i1 noundef zeroext %3) #6 comdat align 2 {
  %5 = alloca ptr, align 8
  %6 = alloca ptr, align 8
  %7 = alloca i32, align 4
  %8 = alloca i8, align 1
  store ptr %0, ptr %5, align 8, !tbaa !12
  store ptr %1, ptr %6, align 8, !tbaa !16
  store i32 %2, ptr %7, align 4, !tbaa !20
  %9 = zext i1 %3 to i8
  store i8 %9, ptr %8, align 1, !tbaa !3
  %10 = load ptr, ptr %6, align 8, !tbaa !16
  %11 = load i32, ptr %7, align 4, !tbaa !20
  %12 = load i8, ptr %8, align 1, !tbaa !3, !range !39, !noundef !40
  %13 = trunc i8 %12 to i1
  call void @_ZN16fixed_bit_vector3setEjb(ptr noundef nonnull align 4 dereferenceable(4) %10, i32 noundef %11, i1 noundef zeroext %13)
  ret void
}

; Function Attrs: mustprogress nounwind uwtable
define linkonce_odr hidden noundef i32 @_ZNK24fixed_bit_vector_manager8num_bitsEv(ptr noundef nonnull align 8 dereferenceable(540) %0) #4 comdat align 2 {
  %2 = alloca ptr, align 8
  store ptr %0, ptr %2, align 8, !tbaa !12
  %3 = load ptr, ptr %2, align 8
  %4 = getelementptr inbounds nuw %class.fixed_bit_vector_manager, ptr %3, i32 0, i32 1
  %5 = load i32, ptr %4, align 8, !tbaa !74
  ret i32 %5
}

; Function Attrs: mustprogress uwtable
define hidden noundef nonnull align 4 dereferenceable(4) ptr @_ZNK11tbv_manager5fillXER3tbv(ptr noundef nonnull align 8 dereferenceable(552) %0, ptr noundef nonnull align 4 dereferenceable(4) %1) #6 align 2 {
  %3 = alloca ptr, align 8
  %4 = alloca ptr, align 8
  store ptr %0, ptr %3, align 8, !tbaa !7
  store ptr %1, ptr %4, align 8, !tbaa !14
  %5 = load ptr, ptr %3, align 8
  %6 = getelementptr inbounds nuw %class.tbv_manager, ptr %5, i32 0, i32 0
  %7 = load ptr, ptr %4, align 8, !tbaa !14
  %8 = call noundef nonnull align 4 dereferenceable(4) ptr @_ZNK24fixed_bit_vector_manager5fill1ER16fixed_bit_vector(ptr noundef nonnull align 8 dereferenceable(540) %6, ptr noundef nonnull align 4 dereferenceable(4) %7)
  %9 = load ptr, ptr %4, align 8, !tbaa !14
  ret ptr %9
}

; Function Attrs: mustprogress uwtable
define hidden noundef ptr @_ZN11tbv_manager8allocateEv(ptr noundef nonnull align 8 dereferenceable(552) %0) #6 align 2 {
  %2 = alloca ptr, align 8
  %3 = alloca ptr, align 8
  store ptr %0, ptr %2, align 8, !tbaa !7
  %4 = load ptr, ptr %2, align 8
  call void @llvm.lifetime.start.p0(i64 8, ptr %3) #3
  %5 = getelementptr inbounds nuw %class.tbv_manager, ptr %4, i32 0, i32 0
  %6 = call noundef ptr @_ZN24fixed_bit_vector_manager8allocateEv(ptr noundef nonnull align 8 dereferenceable(540) %5)
  store ptr %6, ptr %3, align 8, !tbaa !14
  %7 = getelementptr inbounds nuw %class.tbv_manager, ptr %4, i32 0, i32 0
  %8 = load ptr, ptr %3, align 8, !tbaa !14
  %9 = call noundef nonnull align 4 dereferenceable(4) ptr @_ZNK24fixed_bit_vector_manager5resetER16fixed_bit_vector(ptr noundef nonnull align 8 dereferenceable(540) %7, ptr noundef nonnull align 4 dereferenceable(4) %8)
  %10 = load ptr, ptr %3, align 8, !tbaa !14
  call void @llvm.lifetime.end.p0(i64 8, ptr %3) #3
  ret ptr %10
}

; Function Attrs: mustprogress uwtable
define hidden void @_ZN11tbv_manager3setER3tbvj4tbit(ptr noundef nonnull align 8 dereferenceable(552) %0, ptr noundef nonnull align 4 dereferenceable(4) %1, i32 noundef %2, i32 noundef %3) #6 align 2 {
  %5 = alloca ptr, align 8
  %6 = alloca ptr, align 8
  %7 = alloca i32, align 4
  %8 = alloca i32, align 4
  store ptr %0, ptr %5, align 8, !tbaa !7
  store ptr %1, ptr %6, align 8, !tbaa !14
  store i32 %2, ptr %7, align 4, !tbaa !20
  store i32 %3, ptr %8, align 4, !tbaa !26
  %9 = load ptr, ptr %5, align 8
  %10 = getelementptr inbounds nuw %class.tbv_manager, ptr %9, i32 0, i32 0
  %11 = load ptr, ptr %6, align 8, !tbaa !14
  %12 = load i32, ptr %7, align 4, !tbaa !20
  %13 = mul i32 2, %12
  %14 = load i32, ptr %8, align 4, !tbaa !26
  %15 = and i32 %14, 2
  %16 = icmp ne i32 %15, 0
  call void @_ZN24fixed_bit_vector_manager3setER16fixed_bit_vectorjb(ptr noundef nonnull align 8 dereferenceable(540) %10, ptr noundef nonnull align 4 dereferenceable(4) %11, i32 noundef %13, i1 noundef zeroext %16)
  %17 = getelementptr inbounds nuw %class.tbv_manager, ptr %9, i32 0, i32 0
  %18 = load ptr, ptr %6, align 8, !tbaa !14
  %19 = load i32, ptr %7, align 4, !tbaa !20
  %20 = mul i32 2, %19
  %21 = add i32 %20, 1
  %22 = load i32, ptr %8, align 4, !tbaa !26
  %23 = and i32 %22, 1
  %24 = icmp ne i32 %23, 0
  call void @_ZN24fixed_bit_vector_manager3setER16fixed_bit_vectorjb(ptr noundef nonnull align 8 dereferenceable(540) %17, ptr noundef nonnull align 4 dereferenceable(4) %18, i32 noundef %21, i1 noundef zeroext %24)
  ret void
}

; Function Attrs: mustprogress uwtable
define linkonce_odr hidden noundef i32 @_ZNK11tbv_manager9num_tbitsEv(ptr noundef nonnull align 8 dereferenceable(552) %0) #6 comdat align 2 {
  %2 = alloca ptr, align 8
  store ptr %0, ptr %2, align 8, !tbaa !7
  %3 = load ptr, ptr %2, align 8
  %4 = getelementptr inbounds nuw %class.tbv_manager, ptr %3, i32 0, i32 0
  %5 = call noundef i32 @_ZNK24fixed_bit_vector_manager8num_bitsEv(ptr noundef nonnull align 8 dereferenceable(540) %4)
  %6 = udiv i32 %5, 2
  ret i32 %6
}

; Function Attrs: mustprogress uwtable
define hidden noundef ptr @_ZN11tbv_manager9allocateXEv(ptr noundef nonnull align 8 dereferenceable(552) %0) #6 align 2 {
  %2 = alloca ptr, align 8
  %3 = alloca ptr, align 8
  store ptr %0, ptr %2, align 8, !tbaa !7
  %4 = load ptr, ptr %2, align 8
  call void @llvm.lifetime.start.p0(i64 8, ptr %3) #3
  %5 = call noundef ptr @_ZN11tbv_manager8allocateEv(ptr noundef nonnull align 8 dereferenceable(552) %4)
  store ptr %5, ptr %3, align 8, !tbaa !14
  %6 = load ptr, ptr %3, align 8, !tbaa !14
  %7 = call noundef nonnull align 4 dereferenceable(4) ptr @_ZNK11tbv_manager5fillXER3tbv(ptr noundef nonnull align 8 dereferenceable(552) %4, ptr noundef nonnull align 4 dereferenceable(4) %6)
  %8 = load ptr, ptr %3, align 8, !tbaa !14
  call void @llvm.lifetime.end.p0(i64 8, ptr %3) #3
  ret ptr %8
}

; Function Attrs: mustprogress uwtable
define hidden noundef ptr @_ZN11tbv_manager8allocateEPKc(ptr noundef nonnull align 8 dereferenceable(552) %0, ptr noundef %1) #6 align 2 {
  %3 = alloca ptr, align 8
  %4 = alloca ptr, align 8
  %5 = alloca ptr, align 8
  %6 = alloca i32, align 4
  %7 = alloca i32, align 4
  store ptr %0, ptr %3, align 8, !tbaa !7
  store ptr %1, ptr %4, align 8, !tbaa !30
  %8 = load ptr, ptr %3, align 8
  call void @llvm.lifetime.start.p0(i64 8, ptr %5) #3
  %9 = call noundef ptr @_ZN11tbv_manager9allocateXEv(ptr noundef nonnull align 8 dereferenceable(552) %8)
  store ptr %9, ptr %5, align 8, !tbaa !14
  call void @llvm.lifetime.start.p0(i64 4, ptr %6) #3
  store i32 0, ptr %6, align 4, !tbaa !20
  call void @llvm.lifetime.start.p0(i64 4, ptr %7) #3
  %10 = call noundef i32 @_ZNK11tbv_manager9num_tbitsEv(ptr noundef nonnull align 8 dereferenceable(552) %8)
  store i32 %10, ptr %7, align 4, !tbaa !20
  br label %11

11:                                               ; preds = %74, %2
  %12 = load ptr, ptr %4, align 8, !tbaa !30
  %13 = load i8, ptr %12, align 1, !tbaa !32
  %14 = icmp ne i8 %13, 0
  br i1 %14, label %15, label %19

15:                                               ; preds = %11
  %16 = load i32, ptr %6, align 4, !tbaa !20
  %17 = load i32, ptr %7, align 4, !tbaa !20
  %18 = icmp ult i32 %16, %17
  br label %19

19:                                               ; preds = %15, %11
  %20 = phi i1 [ false, %11 ], [ %18, %15 ]
  br i1 %20, label %21, label %77

21:                                               ; preds = %19
  %22 = load ptr, ptr %4, align 8, !tbaa !30
  %23 = load i8, ptr %22, align 1, !tbaa !32
  %24 = sext i8 %23 to i32
  %25 = icmp eq i32 %24, 48
  br i1 %25, label %26, label %30

26:                                               ; preds = %21
  %27 = load ptr, ptr %5, align 8, !tbaa !14
  %28 = load i32, ptr %6, align 4, !tbaa !20
  %29 = add i32 %28, 1
  store i32 %29, ptr %6, align 4, !tbaa !20
  call void @_ZN11tbv_manager3setER3tbvj4tbit(ptr noundef nonnull align 8 dereferenceable(552) %8, ptr noundef nonnull align 4 dereferenceable(4) %27, i32 noundef %28, i32 noundef 1)
  br label %74

30:                                               ; preds = %21
  %31 = load ptr, ptr %4, align 8, !tbaa !30
  %32 = load i8, ptr %31, align 1, !tbaa !32
  %33 = sext i8 %32 to i32
  %34 = icmp eq i32 %33, 49
  br i1 %34, label %35, label %39

35:                                               ; preds = %30
  %36 = load ptr, ptr %5, align 8, !tbaa !14
  %37 = load i32, ptr %6, align 4, !tbaa !20
  %38 = add i32 %37, 1
  store i32 %38, ptr %6, align 4, !tbaa !20
  call void @_ZN11tbv_manager3setER3tbvj4tbit(ptr noundef nonnull align 8 dereferenceable(552) %8, ptr noundef nonnull align 4 dereferenceable(4) %36, i32 noundef %37, i32 noundef 2)
  br label %73

39:                                               ; preds = %30
  %40 = load ptr, ptr %4, align 8, !tbaa !30
  %41 = load i8, ptr %40, align 1, !tbaa !32
  %42 = sext i8 %41 to i32
  %43 = icmp eq i32 %42, 42
  br i1 %43, label %44, label %47

44:                                               ; preds = %39
  %45 = load i32, ptr %6, align 4, !tbaa !20
  %46 = add i32 %45, 1
  store i32 %46, ptr %6, align 4, !tbaa !20
  br label %72

47:                                               ; preds = %39
  %48 = load ptr, ptr %4, align 8, !tbaa !30
  %49 = load i8, ptr %48, align 1, !tbaa !32
  %50 = sext i8 %49 to i32
  %51 = icmp eq i32 %50, 120
  br i1 %51, label %52, label %55

52:                                               ; preds = %47
  %53 = load i32, ptr %6, align 4, !tbaa !20
  %54 = add i32 %53, 1
  store i32 %54, ptr %6, align 4, !tbaa !20
  br label %71

55:                                               ; preds = %47
  %56 = load i32, ptr %6, align 4, !tbaa !20
  %57 = icmp eq i32 %56, 0
  br i1 %57, label %58, label %69

58:                                               ; preds = %55
  %59 = load ptr, ptr %4, align 8, !tbaa !30
  %60 = load i8, ptr %59, align 1, !tbaa !32
  %61 = sext i8 %60 to i32
  %62 = icmp eq i32 %61, 32
  br i1 %62, label %68, label %63

63:                                               ; preds = %58
  %64 = load ptr, ptr %4, align 8, !tbaa !30
  %65 = load i8, ptr %64, align 1, !tbaa !32
  %66 = sext i8 %65 to i32
  %67 = icmp eq i32 %66, 9
  br i1 %67, label %68, label %69

68:                                               ; preds = %63, %58
  br label %70

69:                                               ; preds = %63, %55
  br label %77

70:                                               ; preds = %68
  br label %71

71:                                               ; preds = %70, %52
  br label %72

72:                                               ; preds = %71, %44
  br label %73

73:                                               ; preds = %72, %35
  br label %74

74:                                               ; preds = %73, %26
  %75 = load ptr, ptr %4, align 8, !tbaa !30
  %76 = getelementptr inbounds nuw i8, ptr %75, i32 1
  store ptr %76, ptr %4, align 8, !tbaa !30
  br label %11, !llvm.loop !33

77:                                               ; preds = %69, %19
  %78 = load ptr, ptr %5, align 8, !tbaa !14
  call void @llvm.lifetime.end.p0(i64 4, ptr %7) #3
  call void @llvm.lifetime.end.p0(i64 4, ptr %6) #3
  call void @llvm.lifetime.end.p0(i64 8, ptr %5) #3
  ret ptr %78
}