; Function Attrs: mustprogress uwtable
define hidden noundef ptr @_ZN11tbv_manager8allocateEPKc(ptr noundef nonnull align 8 dereferenceable(552) %0, ptr noundef readonly captures(none) %1) local_unnamed_addr #5 align 2 {
  %3 = tail call noundef ptr @_ZN24fixed_bit_vector_manager8allocateEv(ptr noundef nonnull align 8 dereferenceable(552) %0)
  %4 = tail call noundef nonnull align 4 dereferenceable(4) ptr @_ZNK24fixed_bit_vector_manager5fill0ER16fixed_bit_vector(ptr noundef nonnull align 8 dereferenceable(552) %0, ptr noundef nonnull align 4 dereferenceable(4) %3)
  %5 = tail call noundef nonnull align 4 dereferenceable(4) ptr @_ZNK24fixed_bit_vector_manager5fill1ER16fixed_bit_vector(ptr noundef nonnull align 8 dereferenceable(552) %0, ptr noundef nonnull align 4 dereferenceable(4) %3)
  %6 = getelementptr inbounds nuw i8, ptr %0, i64 520
  %7 = load i32, ptr %6, align 8, !tbaa !16
  %8 = lshr i32 %7, 1
  %9 = load i8, ptr %1, align 1, !tbaa !22
  %10 = icmp ne i8 %9, 0
  %11 = icmp ugt i32 %7, 1
  %12 = select i1 %10, i1 %11, i1 false
  br i1 %12, label %.lr.ph, label %._crit_edge

.lr.ph:                                           ; preds = %2, %51
  %13 = phi i8 [ %53, %51 ], [ %9, %2 ]
  %.022 = phi ptr [ %52, %51 ], [ %1, %2 ]
  %.01821 = phi i32 [ %.1, %51 ], [ 0, %2 ]
  switch i8 %13, label %48 [
    i8 48, label %14
    i8 49, label %29
    i8 42, label %44
    i8 120, label %46
  ]

14:                                               ; preds = %.lr.ph
  %15 = add i32 %.01821, 1
  %16 = shl i32 %.01821, 1
  %17 = lshr i32 %16, 5
  %18 = zext nneg i32 %17 to i64
  %19 = getelementptr inbounds nuw [1 x i32], ptr %3, i64 0, i64 %18
  %20 = load i32, ptr %19, align 4, !tbaa !17
  %21 = and i32 %16, 30
  %22 = shl nuw nsw i32 1, %21
  %23 = and i32 %20, %22
  %24 = xor i32 %20, -1
  %25 = shl nuw i32 2, %21
  %26 = and i32 %25, %24
  %27 = or disjoint i32 %23, %26
  %28 = xor i32 %27, %20
  store i32 %28, ptr %19, align 4, !tbaa !17
  br label %51

29:                                               ; preds = %.lr.ph
  %30 = add nuw i32 %.01821, 1
  %31 = shl i32 %.01821, 1
  %32 = lshr i32 %31, 5
  %33 = zext nneg i32 %32 to i64
  %34 = getelementptr inbounds nuw [1 x i32], ptr %3, i64 0, i64 %33
  %35 = load i32, ptr %34, align 4, !tbaa !17
  %36 = xor i32 %35, -1
  %37 = and i32 %31, 30
  %38 = shl nuw nsw i32 1, %37
  %39 = and i32 %38, %36
  %40 = shl nuw i32 2, %37
  %41 = and i32 %35, %40
  %42 = or disjoint i32 %39, %41
  %43 = xor i32 %42, %35
  store i32 %43, ptr %34, align 4, !tbaa !17
  br label %51

44:                                               ; preds = %.lr.ph
  %45 = add nuw i32 %.01821, 1
  br label %51

46:                                               ; preds = %.lr.ph
  %47 = add nuw i32 %.01821, 1
  br label %51

48:                                               ; preds = %.lr.ph
  %49 = icmp eq i32 %.01821, 0
  br i1 %49, label %50, label %._crit_edge

50:                                               ; preds = %48
  switch i8 %13, label %._crit_edge [
    i8 32, label %51
    i8 9, label %51
  ]

51:                                               ; preds = %50, %50, %29, %46, %44, %14
  %.1 = phi i32 [ %15, %14 ], [ %30, %29 ], [ %45, %44 ], [ %47, %46 ], [ 0, %50 ], [ 0, %50 ]
  %52 = getelementptr inbounds nuw i8, ptr %.022, i64 1
  %53 = load i8, ptr %52, align 1, !tbaa !22
  %54 = icmp ne i8 %53, 0
  %55 = icmp ult i32 %.1, %8
  %56 = select i1 %54, i1 %55, i1 false
  br i1 %56, label %.lr.ph, label %._crit_edge, !llvm.loop !23

._crit_edge:                                      ; preds = %51, %48, %50, %2
  ret ptr %3
}